ARM GAS  C:\Users\walker\AppData\Local\Temp\ccl7FFqK.s 			page 1


   1              		.cpu cortex-m4
   2              		.arch armv7e-m
   3              		.fpu fpv4-sp-d16
   4              		.eabi_attribute 27, 1
   5              		.eabi_attribute 28, 1
   6              		.eabi_attribute 20, 1
   7              		.eabi_attribute 21, 1
   8              		.eabi_attribute 23, 3
   9              		.eabi_attribute 24, 1
  10              		.eabi_attribute 25, 1
  11              		.eabi_attribute 26, 1
  12              		.eabi_attribute 30, 1
  13              		.eabi_attribute 34, 1
  14              		.eabi_attribute 18, 4
  15              		.file	"freertos.c"
  16              		.text
  17              	.Ltext0:
  18              		.cfi_sections	.debug_frame
  19              		.section	.text.StartRPM_Calcuate,"ax",%progbits
  20              		.align	1
  21              		.global	StartRPM_Calcuate
  22              		.syntax unified
  23              		.thumb
  24              		.thumb_func
  26              	StartRPM_Calcuate:
  27              	.LVL0:
  28              	.LFB169:
  29              		.file 1 "Core/Src/freertos.c"
   1:Core/Src/freertos.c **** /* USER CODE BEGIN Header */
   2:Core/Src/freertos.c **** /**
   3:Core/Src/freertos.c ****  ******************************************************************************
   4:Core/Src/freertos.c ****  * File Name          : freertos.c
   5:Core/Src/freertos.c ****  * Description        : Code for freertos applications
   6:Core/Src/freertos.c ****  ******************************************************************************
   7:Core/Src/freertos.c ****  * @attention
   8:Core/Src/freertos.c ****  *
   9:Core/Src/freertos.c ****  * Copyright (c) 2023 STMicroelectronics.
  10:Core/Src/freertos.c ****  * All rights reserved.
  11:Core/Src/freertos.c ****  *
  12:Core/Src/freertos.c ****  * This software is licensed under terms that can be found in the LICENSE file
  13:Core/Src/freertos.c ****  * in the root directory of this software component.
  14:Core/Src/freertos.c ****  * If no LICENSE file comes with this software, it is provided AS-IS.
  15:Core/Src/freertos.c ****  *
  16:Core/Src/freertos.c ****  ******************************************************************************
  17:Core/Src/freertos.c ****  */
  18:Core/Src/freertos.c **** /* USER CODE END Header */
  19:Core/Src/freertos.c **** 
  20:Core/Src/freertos.c **** /* Includes ------------------------------------------------------------------*/
  21:Core/Src/freertos.c **** #include "FreeRTOS.h"
  22:Core/Src/freertos.c **** #include "task.h"
  23:Core/Src/freertos.c **** #include "main.h"
  24:Core/Src/freertos.c **** #include "cmsis_os.h"
  25:Core/Src/freertos.c **** 
  26:Core/Src/freertos.c **** /* Private includes ----------------------------------------------------------*/
  27:Core/Src/freertos.c **** /* USER CODE BEGIN Includes */
  28:Core/Src/freertos.c **** #include "CO_app_STM32.h"
  29:Core/Src/freertos.c **** #include "OD.h"
ARM GAS  C:\Users\walker\AppData\Local\Temp\ccl7FFqK.s 			page 2


  30:Core/Src/freertos.c **** #include "tim.h"
  31:Core/Src/freertos.c **** #include "comment.h"
  32:Core/Src/freertos.c **** #include "can.h"
  33:Core/Src/freertos.c **** /* USER CODE END Includes */
  34:Core/Src/freertos.c **** 
  35:Core/Src/freertos.c **** /* Private typedef -----------------------------------------------------------*/
  36:Core/Src/freertos.c **** /* USER CODE BEGIN PTD */
  37:Core/Src/freertos.c **** 
  38:Core/Src/freertos.c **** /* USER CODE END PTD */
  39:Core/Src/freertos.c **** 
  40:Core/Src/freertos.c **** /* Private define ------------------------------------------------------------*/
  41:Core/Src/freertos.c **** /* USER CODE BEGIN PD */
  42:Core/Src/freertos.c **** 
  43:Core/Src/freertos.c **** /* USER CODE END PD */
  44:Core/Src/freertos.c **** 
  45:Core/Src/freertos.c **** /* Private macro -------------------------------------------------------------*/
  46:Core/Src/freertos.c **** /* USER CODE BEGIN PM */
  47:Core/Src/freertos.c **** 
  48:Core/Src/freertos.c **** /* USER CODE END PM */
  49:Core/Src/freertos.c **** 
  50:Core/Src/freertos.c **** /* Private variables ---------------------------------------------------------*/
  51:Core/Src/freertos.c **** /* USER CODE BEGIN Variables */
  52:Core/Src/freertos.c **** /* USER CODE END Variables */
  53:Core/Src/freertos.c **** /* Definitions for RPM_CalcuateTas */
  54:Core/Src/freertos.c **** osThreadId_t RPM_CalcuateTasHandle;
  55:Core/Src/freertos.c **** const osThreadAttr_t RPM_CalcuateTas_attributes = {
  56:Core/Src/freertos.c ****     .name = "RPM_CalcuateTas",
  57:Core/Src/freertos.c ****     .stack_size = 128 * 4,
  58:Core/Src/freertos.c ****     .priority = (osPriority_t)osPriorityHigh,
  59:Core/Src/freertos.c **** };
  60:Core/Src/freertos.c **** /* Definitions for canopenTask */
  61:Core/Src/freertos.c **** osThreadId_t canopenTaskHandle;
  62:Core/Src/freertos.c **** const osThreadAttr_t canopenTask_attributes = {
  63:Core/Src/freertos.c ****     .name = "canopenTask",
  64:Core/Src/freertos.c ****     .stack_size = 128 * 4,
  65:Core/Src/freertos.c ****     .priority = (osPriority_t)osPriorityRealtime,
  66:Core/Src/freertos.c **** };
  67:Core/Src/freertos.c **** 
  68:Core/Src/freertos.c **** /* Private function prototypes -----------------------------------------------*/
  69:Core/Src/freertos.c **** /* USER CODE BEGIN FunctionPrototypes */
  70:Core/Src/freertos.c **** 
  71:Core/Src/freertos.c **** /* USER CODE END FunctionPrototypes */
  72:Core/Src/freertos.c **** 
  73:Core/Src/freertos.c **** void StartRPM_Calcuate(void *argument);
  74:Core/Src/freertos.c **** void canopen_task(void *argument);
  75:Core/Src/freertos.c **** 
  76:Core/Src/freertos.c **** void MX_FREERTOS_Init(void); /* (MISRA C 2004 rule 8.1) */
  77:Core/Src/freertos.c **** 
  78:Core/Src/freertos.c **** /**
  79:Core/Src/freertos.c ****  * @brief  FreeRTOS initialization
  80:Core/Src/freertos.c ****  * @param  None
  81:Core/Src/freertos.c ****  * @retval None
  82:Core/Src/freertos.c ****  */
  83:Core/Src/freertos.c **** void MX_FREERTOS_Init(void)
  84:Core/Src/freertos.c **** {
  85:Core/Src/freertos.c ****   /* USER CODE BEGIN Init */
  86:Core/Src/freertos.c **** 
ARM GAS  C:\Users\walker\AppData\Local\Temp\ccl7FFqK.s 			page 3


  87:Core/Src/freertos.c ****   /* USER CODE END Init */
  88:Core/Src/freertos.c **** 
  89:Core/Src/freertos.c ****   /* USER CODE BEGIN RTOS_MUTEX */
  90:Core/Src/freertos.c ****   /* add mutexes, ... */
  91:Core/Src/freertos.c ****   /* USER CODE END RTOS_MUTEX */
  92:Core/Src/freertos.c **** 
  93:Core/Src/freertos.c ****   /* USER CODE BEGIN RTOS_SEMAPHORES */
  94:Core/Src/freertos.c ****   /* add semaphores, ... */
  95:Core/Src/freertos.c ****   /* USER CODE END RTOS_SEMAPHORES */
  96:Core/Src/freertos.c **** 
  97:Core/Src/freertos.c ****   /* USER CODE BEGIN RTOS_TIMERS */
  98:Core/Src/freertos.c ****   /* start timers, add new ones, ... */
  99:Core/Src/freertos.c ****   /* USER CODE END RTOS_TIMERS */
 100:Core/Src/freertos.c **** 
 101:Core/Src/freertos.c ****   /* USER CODE BEGIN RTOS_QUEUES */
 102:Core/Src/freertos.c ****   /* add queues, ... */
 103:Core/Src/freertos.c ****   /* USER CODE END RTOS_QUEUES */
 104:Core/Src/freertos.c **** 
 105:Core/Src/freertos.c ****   /* Create the thread(s) */
 106:Core/Src/freertos.c ****   /* creation of RPM_CalcuateTas */
 107:Core/Src/freertos.c ****   RPM_CalcuateTasHandle = osThreadNew(StartRPM_Calcuate, NULL, &RPM_CalcuateTas_attributes);
 108:Core/Src/freertos.c **** 
 109:Core/Src/freertos.c ****   /* creation of canopenTask */
 110:Core/Src/freertos.c ****   canopenTaskHandle = osThreadNew(canopen_task, NULL, &canopenTask_attributes);
 111:Core/Src/freertos.c **** 
 112:Core/Src/freertos.c ****   /* USER CODE BEGIN RTOS_THREADS */
 113:Core/Src/freertos.c ****   /* add threads, ... */
 114:Core/Src/freertos.c ****   /* USER CODE END RTOS_THREADS */
 115:Core/Src/freertos.c **** 
 116:Core/Src/freertos.c ****   /* USER CODE BEGIN RTOS_EVENTS */
 117:Core/Src/freertos.c ****   /* add events, ... */
 118:Core/Src/freertos.c ****   /* USER CODE END RTOS_EVENTS */
 119:Core/Src/freertos.c **** }
 120:Core/Src/freertos.c **** 
 121:Core/Src/freertos.c **** /* USER CODE BEGIN Header_StartRPM_Calcuate */
 122:Core/Src/freertos.c **** /**
 123:Core/Src/freertos.c ****  * @brief  Function implementing the RPM_CalcuateTas thread.
 124:Core/Src/freertos.c ****  * @param  argument: Not used
 125:Core/Src/freertos.c ****  * @retval None
 126:Core/Src/freertos.c ****  */
 127:Core/Src/freertos.c **** /* USER CODE END Header_StartRPM_Calcuate */
 128:Core/Src/freertos.c **** void StartRPM_Calcuate(void *argument)
 129:Core/Src/freertos.c **** {
  30              		.loc 1 129 1 view -0
  31              		.cfi_startproc
  32              		@ Volatile: function does not return.
  33              		@ args = 0, pretend = 0, frame = 8
  34              		@ frame_needed = 0, uses_anonymous_args = 0
  35              		.loc 1 129 1 is_stmt 0 view .LVU1
  36 0000 00B5     		push	{lr}
  37              	.LCFI0:
  38              		.cfi_def_cfa_offset 4
  39              		.cfi_offset 14, -4
  40 0002 83B0     		sub	sp, sp, #12
  41              	.LCFI1:
  42              		.cfi_def_cfa_offset 16
 130:Core/Src/freertos.c ****   /* USER CODE BEGIN StartRPM_Calcuate */
ARM GAS  C:\Users\walker\AppData\Local\Temp\ccl7FFqK.s 			page 4


 131:Core/Src/freertos.c ****   /* Infinite loop */
 132:Core/Src/freertos.c ****   volatile int rpm = get_counter(); // volatile use to let gdp get value
  43              		.loc 1 132 3 is_stmt 1 view .LVU2
  44              		.loc 1 132 22 is_stmt 0 view .LVU3
  45 0004 FFF7FEFF 		bl	get_counter
  46              	.LVL1:
  47              		.loc 1 132 16 view .LVU4
  48 0008 0190     		str	r0, [sp, #4]
  49              	.L2:
 133:Core/Src/freertos.c ****   /* USER CODE END StartRPM_Calcuate */
 134:Core/Src/freertos.c ****   for (;;)
  50              		.loc 1 134 3 is_stmt 1 discriminator 1 view .LVU5
 135:Core/Src/freertos.c ****   {
 136:Core/Src/freertos.c ****     rpm = get_counter();
  51              		.loc 1 136 5 discriminator 1 view .LVU6
  52              		.loc 1 136 11 is_stmt 0 discriminator 1 view .LVU7
  53 000a FFF7FEFF 		bl	get_counter
  54              	.LVL2:
  55              		.loc 1 136 9 discriminator 1 view .LVU8
  56 000e 0190     		str	r0, [sp, #4]
 134:Core/Src/freertos.c ****   {
  57              		.loc 1 134 9 is_stmt 1 discriminator 1 view .LVU9
  58 0010 FBE7     		b	.L2
  59              		.cfi_endproc
  60              	.LFE169:
  62              		.section	.text.canopen_task,"ax",%progbits
  63              		.align	1
  64              		.global	canopen_task
  65              		.syntax unified
  66              		.thumb
  67              		.thumb_func
  69              	canopen_task:
  70              	.LVL3:
  71              	.LFB170:
 137:Core/Src/freertos.c ****   }
 138:Core/Src/freertos.c **** }
 139:Core/Src/freertos.c **** 
 140:Core/Src/freertos.c **** /* USER CODE BEGIN Header_canopen_task */
 141:Core/Src/freertos.c **** /**
 142:Core/Src/freertos.c ****  * @brief Function implementing the canopenTask thread.
 143:Core/Src/freertos.c ****  * @param argument: Not used
 144:Core/Src/freertos.c ****  * @retval None
 145:Core/Src/freertos.c ****  */
 146:Core/Src/freertos.c **** /* USER CODE END Header_canopen_task */
 147:Core/Src/freertos.c **** void canopen_task(void *argument)
 148:Core/Src/freertos.c **** {
  72              		.loc 1 148 1 view -0
  73              		.cfi_startproc
  74              		@ Volatile: function does not return.
  75              		@ args = 0, pretend = 0, frame = 24
  76              		@ frame_needed = 0, uses_anonymous_args = 0
  77              		.loc 1 148 1 is_stmt 0 view .LVU11
  78 0000 00B5     		push	{lr}
  79              	.LCFI2:
  80              		.cfi_def_cfa_offset 4
  81              		.cfi_offset 14, -4
  82 0002 87B0     		sub	sp, sp, #28
ARM GAS  C:\Users\walker\AppData\Local\Temp\ccl7FFqK.s 			page 5


  83              	.LCFI3:
  84              		.cfi_def_cfa_offset 32
 149:Core/Src/freertos.c ****   /* USER CODE BEGIN canopen_task */
 150:Core/Src/freertos.c ****   CANopenNodeSTM32 canOpenNodeSTM32;
  85              		.loc 1 150 3 is_stmt 1 view .LVU12
 151:Core/Src/freertos.c ****   canOpenNodeSTM32.CANHandle = &hcan;
  86              		.loc 1 151 3 view .LVU13
  87              		.loc 1 151 30 is_stmt 0 view .LVU14
  88 0004 0A4B     		ldr	r3, .L7
  89 0006 0293     		str	r3, [sp, #8]
 152:Core/Src/freertos.c ****   canOpenNodeSTM32.HWInitFunction = MX_CAN_Init;
  90              		.loc 1 152 3 is_stmt 1 view .LVU15
  91              		.loc 1 152 35 is_stmt 0 view .LVU16
  92 0008 0A4B     		ldr	r3, .L7+4
  93 000a 0393     		str	r3, [sp, #12]
 153:Core/Src/freertos.c ****   canOpenNodeSTM32.timerHandle = &htim17;
  94              		.loc 1 153 3 is_stmt 1 view .LVU17
  95              		.loc 1 153 32 is_stmt 0 view .LVU18
  96 000c 0A4B     		ldr	r3, .L7+8
  97 000e 0193     		str	r3, [sp, #4]
 154:Core/Src/freertos.c ****   canOpenNodeSTM32.desiredNodeID = 18;
  98              		.loc 1 154 3 is_stmt 1 view .LVU19
  99              		.loc 1 154 34 is_stmt 0 view .LVU20
 100 0010 1223     		movs	r3, #18
 101 0012 8DF80030 		strb	r3, [sp]
 155:Core/Src/freertos.c ****   canOpenNodeSTM32.baudrate = 125;
 102              		.loc 1 155 3 is_stmt 1 view .LVU21
 103              		.loc 1 155 29 is_stmt 0 view .LVU22
 104 0016 7D23     		movs	r3, #125
 105 0018 8DF80230 		strb	r3, [sp, #2]
 156:Core/Src/freertos.c ****   canopen_app_init(&canOpenNodeSTM32);
 106              		.loc 1 156 3 is_stmt 1 view .LVU23
 107 001c 6846     		mov	r0, sp
 108              	.LVL4:
 109              		.loc 1 156 3 is_stmt 0 view .LVU24
 110 001e FFF7FEFF 		bl	canopen_app_init
 111              	.LVL5:
 112              	.L5:
 157:Core/Src/freertos.c ****   /* Infinite loop */
 158:Core/Src/freertos.c ****   for (;;)
 113              		.loc 1 158 3 is_stmt 1 discriminator 1 view .LVU25
 159:Core/Src/freertos.c ****   {
 160:Core/Src/freertos.c ****     canopen_app_process();
 114              		.loc 1 160 5 discriminator 1 view .LVU26
 115 0022 FFF7FEFF 		bl	canopen_app_process
 116              	.LVL6:
 161:Core/Src/freertos.c ****     vTaskDelay(1);
 117              		.loc 1 161 5 discriminator 1 view .LVU27
 118 0026 0120     		movs	r0, #1
 119 0028 FFF7FEFF 		bl	vTaskDelay
 120              	.LVL7:
 158:Core/Src/freertos.c ****   {
 121              		.loc 1 158 9 discriminator 1 view .LVU28
 122 002c F9E7     		b	.L5
 123              	.L8:
 124 002e 00BF     		.align	2
 125              	.L7:
ARM GAS  C:\Users\walker\AppData\Local\Temp\ccl7FFqK.s 			page 6


 126 0030 00000000 		.word	hcan
 127 0034 00000000 		.word	MX_CAN_Init
 128 0038 00000000 		.word	htim17
 129              		.cfi_endproc
 130              	.LFE170:
 132              		.section	.text.MX_FREERTOS_Init,"ax",%progbits
 133              		.align	1
 134              		.global	MX_FREERTOS_Init
 135              		.syntax unified
 136              		.thumb
 137              		.thumb_func
 139              	MX_FREERTOS_Init:
 140              	.LFB168:
  84:Core/Src/freertos.c ****   /* USER CODE BEGIN Init */
 141              		.loc 1 84 1 view -0
 142              		.cfi_startproc
 143              		@ args = 0, pretend = 0, frame = 0
 144              		@ frame_needed = 0, uses_anonymous_args = 0
 145 0000 08B5     		push	{r3, lr}
 146              	.LCFI4:
 147              		.cfi_def_cfa_offset 8
 148              		.cfi_offset 3, -8
 149              		.cfi_offset 14, -4
 107:Core/Src/freertos.c **** 
 150              		.loc 1 107 3 view .LVU30
 107:Core/Src/freertos.c **** 
 151              		.loc 1 107 27 is_stmt 0 view .LVU31
 152 0002 074A     		ldr	r2, .L11
 153 0004 0021     		movs	r1, #0
 154 0006 0748     		ldr	r0, .L11+4
 155 0008 FFF7FEFF 		bl	osThreadNew
 156              	.LVL8:
 107:Core/Src/freertos.c **** 
 157              		.loc 1 107 25 view .LVU32
 158 000c 064B     		ldr	r3, .L11+8
 159 000e 1860     		str	r0, [r3]
 110:Core/Src/freertos.c **** 
 160              		.loc 1 110 3 is_stmt 1 view .LVU33
 110:Core/Src/freertos.c **** 
 161              		.loc 1 110 23 is_stmt 0 view .LVU34
 162 0010 064A     		ldr	r2, .L11+12
 163 0012 0021     		movs	r1, #0
 164 0014 0648     		ldr	r0, .L11+16
 165 0016 FFF7FEFF 		bl	osThreadNew
 166              	.LVL9:
 110:Core/Src/freertos.c **** 
 167              		.loc 1 110 21 view .LVU35
 168 001a 064B     		ldr	r3, .L11+20
 169 001c 1860     		str	r0, [r3]
 119:Core/Src/freertos.c **** 
 170              		.loc 1 119 1 view .LVU36
 171 001e 08BD     		pop	{r3, pc}
 172              	.L12:
 173              		.align	2
 174              	.L11:
 175 0020 00000000 		.word	.LANCHOR0
 176 0024 00000000 		.word	StartRPM_Calcuate
ARM GAS  C:\Users\walker\AppData\Local\Temp\ccl7FFqK.s 			page 7


 177 0028 00000000 		.word	.LANCHOR1
 178 002c 00000000 		.word	.LANCHOR2
 179 0030 00000000 		.word	canopen_task
 180 0034 00000000 		.word	.LANCHOR3
 181              		.cfi_endproc
 182              	.LFE168:
 184              		.global	canopenTask_attributes
 185              		.section	.rodata.str1.4,"aMS",%progbits,1
 186              		.align	2
 187              	.LC0:
 188 0000 63616E6F 		.ascii	"canopenTask\000"
 188      70656E54 
 188      61736B00 
 189              		.global	canopenTaskHandle
 190              		.global	RPM_CalcuateTas_attributes
 191              		.align	2
 192              	.LC1:
 193 000c 52504D5F 		.ascii	"RPM_CalcuateTas\000"
 193      43616C63 
 193      75617465 
 193      54617300 
 194              		.global	RPM_CalcuateTasHandle
 195              		.section	.bss.RPM_CalcuateTasHandle,"aw",%nobits
 196              		.align	2
 197              		.set	.LANCHOR1,. + 0
 200              	RPM_CalcuateTasHandle:
 201 0000 00000000 		.space	4
 202              		.section	.bss.canopenTaskHandle,"aw",%nobits
 203              		.align	2
 204              		.set	.LANCHOR3,. + 0
 207              	canopenTaskHandle:
 208 0000 00000000 		.space	4
 209              		.section	.rodata.RPM_CalcuateTas_attributes,"a"
 210              		.align	2
 211              		.set	.LANCHOR0,. + 0
 214              	RPM_CalcuateTas_attributes:
 215 0000 0C000000 		.word	.LC1
 216 0004 00000000 		.space	16
 216      00000000 
 216      00000000 
 216      00000000 
 217 0014 00020000 		.word	512
 218 0018 28000000 		.word	40
 219 001c 00000000 		.space	8
 219      00000000 
 220              		.section	.rodata.canopenTask_attributes,"a"
 221              		.align	2
 222              		.set	.LANCHOR2,. + 0
 225              	canopenTask_attributes:
 226 0000 00000000 		.word	.LC0
 227 0004 00000000 		.space	16
 227      00000000 
 227      00000000 
 227      00000000 
 228 0014 00020000 		.word	512
 229 0018 30000000 		.word	48
 230 001c 00000000 		.space	8
ARM GAS  C:\Users\walker\AppData\Local\Temp\ccl7FFqK.s 			page 8


 230      00000000 
 231              		.text
 232              	.Letext0:
 233              		.file 2 "c:\\program files (x86)\\gnu arm embedded toolchain\\10 2021.10\\arm-none-eabi\\include\\
 234              		.file 3 "c:\\program files (x86)\\gnu arm embedded toolchain\\10 2021.10\\arm-none-eabi\\include\\
 235              		.file 4 "c:\\program files (x86)\\gnu arm embedded toolchain\\10 2021.10\\arm-none-eabi\\include\\
 236              		.file 5 "Drivers/CMSIS/Device/ST/STM32F3xx/Include/stm32f303x8.h"
 237              		.file 6 "Drivers/CMSIS/Device/ST/STM32F3xx/Include/stm32f3xx.h"
 238              		.file 7 "Drivers/STM32F3xx_HAL_Driver/Inc/stm32f3xx_hal_def.h"
 239              		.file 8 "Drivers/STM32F3xx_HAL_Driver/Inc/stm32f3xx_hal_dma.h"
 240              		.file 9 "Drivers/STM32F3xx_HAL_Driver/Inc/stm32f3xx_hal_can.h"
 241              		.file 10 "Drivers/STM32F3xx_HAL_Driver/Inc/stm32f3xx_hal_tim.h"
 242              		.file 11 "Middlewares/Third_Party/FreeRTOS/Source/CMSIS_RTOS_V2/cmsis_os2.h"
 243              		.file 12 "Middlewares/Third_Party/CANopenNode_STM32/CO_driver_target.h"
 244              		.file 13 "Middlewares/Third_Party/CANopenNode/301/CO_ODinterface.h"
 245              		.file 14 "Middlewares/Third_Party/CANopenNode/301/CO_Emergency.h"
 246              		.file 15 "Middlewares/Third_Party/CANopenNode/301/CO_NMT_Heartbeat.h"
 247              		.file 16 "Middlewares/Third_Party/CANopenNode/301/CO_HBconsumer.h"
 248              		.file 17 "Middlewares/Third_Party/CANopenNode/301/CO_SDOserver.h"
 249              		.file 18 "Middlewares/Third_Party/CANopenNode/301/CO_SYNC.h"
 250              		.file 19 "Middlewares/Third_Party/CANopenNode/301/CO_PDO.h"
 251              		.file 20 "Middlewares/Third_Party/CANopenNode/301/CO_TIME.h"
 252              		.file 21 "Middlewares/Third_Party/CANopenNode/303/CO_LEDs.h"
 253              		.file 22 "Middlewares/Third_Party/CANopenNode/305/CO_LSS.h"
 254              		.file 23 "Middlewares/Third_Party/CANopenNode/305/CO_LSSslave.h"
 255              		.file 24 "Middlewares/Third_Party/CANopenNode/CANopen.h"
 256              		.file 25 "Middlewares/Third_Party/CANopenNode_STM32/CO_app_STM32.h"
 257              		.file 26 "Core/Inc/tim.h"
 258              		.file 27 "Core/Inc/can.h"
 259              		.file 28 "Middlewares/Third_Party/FreeRTOS/Source/include/task.h"
 260              		.file 29 "Core/Inc/main.h"
ARM GAS  C:\Users\walker\AppData\Local\Temp\ccl7FFqK.s 			page 9

