ARM GAS  C:\Users\walker\AppData\Local\Temp\cc6cN231.s 			page 1


   1              		.cpu cortex-m4
   2              		.arch armv7e-m
   3              		.fpu fpv4-sp-d16
   4              		.eabi_attribute 27, 1
   5              		.eabi_attribute 28, 1
   6              		.eabi_attribute 20, 1
   7              		.eabi_attribute 21, 1
   8              		.eabi_attribute 23, 3
   9              		.eabi_attribute 24, 1
  10              		.eabi_attribute 25, 1
  11              		.eabi_attribute 26, 1
  12              		.eabi_attribute 30, 1
  13              		.eabi_attribute 34, 1
  14              		.eabi_attribute 18, 4
  15              		.file	"main.c"
  16              		.text
  17              	.Ltext0:
  18              		.cfi_sections	.debug_frame
  19              		.section	.text.get_NodeID,"ax",%progbits
  20              		.align	1
  21              		.global	get_NodeID
  22              		.syntax unified
  23              		.thumb
  24              		.thumb_func
  26              	get_NodeID:
  27              	.LFB170:
  28              		.file 1 "Core/Src/main.c"
   1:Core/Src/main.c **** /* USER CODE BEGIN Header */
   2:Core/Src/main.c **** /**
   3:Core/Src/main.c ****  ******************************************************************************
   4:Core/Src/main.c ****  * @file           : main.c
   5:Core/Src/main.c ****  * @brief          : Main program body
   6:Core/Src/main.c ****  ******************************************************************************
   7:Core/Src/main.c ****  * @attention
   8:Core/Src/main.c ****  *
   9:Core/Src/main.c ****  * Copyright (c) 2023 STMicroelectronics.
  10:Core/Src/main.c ****  * All rights reserved.
  11:Core/Src/main.c ****  *
  12:Core/Src/main.c ****  * This software is licensed under terms that can be found in the LICENSE file
  13:Core/Src/main.c ****  * in the root directory of this software component.
  14:Core/Src/main.c ****  * If no LICENSE file comes with this software, it is provided AS-IS.
  15:Core/Src/main.c ****  *
  16:Core/Src/main.c ****  ******************************************************************************
  17:Core/Src/main.c ****  */
  18:Core/Src/main.c **** /* USER CODE END Header */
  19:Core/Src/main.c **** /* Includes ------------------------------------------------------------------*/
  20:Core/Src/main.c **** #include "main.h"
  21:Core/Src/main.c **** #include "cmsis_os.h"
  22:Core/Src/main.c **** #include "can.h"
  23:Core/Src/main.c **** #include "tim.h"
  24:Core/Src/main.c **** #include "gpio.h"
  25:Core/Src/main.c **** 
  26:Core/Src/main.c **** /* Private includes ----------------------------------------------------------*/
  27:Core/Src/main.c **** /* USER CODE BEGIN Includes */
  28:Core/Src/main.c **** #include "CO_app_STM32.h"
  29:Core/Src/main.c **** /* USER CODE END Includes */
  30:Core/Src/main.c **** 
ARM GAS  C:\Users\walker\AppData\Local\Temp\cc6cN231.s 			page 2


  31:Core/Src/main.c **** /* Private typedef -----------------------------------------------------------*/
  32:Core/Src/main.c **** /* USER CODE BEGIN PTD */
  33:Core/Src/main.c **** 
  34:Core/Src/main.c **** /* USER CODE END PTD */
  35:Core/Src/main.c **** 
  36:Core/Src/main.c **** /* Private define ------------------------------------------------------------*/
  37:Core/Src/main.c **** /* USER CODE BEGIN PD */
  38:Core/Src/main.c **** /* USER CODE END PD */
  39:Core/Src/main.c **** 
  40:Core/Src/main.c **** /* Private macro -------------------------------------------------------------*/
  41:Core/Src/main.c **** /* USER CODE BEGIN PM */
  42:Core/Src/main.c **** 
  43:Core/Src/main.c **** /* USER CODE END PM */
  44:Core/Src/main.c **** 
  45:Core/Src/main.c **** /* Private variables ---------------------------------------------------------*/
  46:Core/Src/main.c **** 
  47:Core/Src/main.c **** /* USER CODE BEGIN PV */
  48:Core/Src/main.c **** 
  49:Core/Src/main.c **** /* USER CODE END PV */
  50:Core/Src/main.c **** 
  51:Core/Src/main.c **** /* Private function prototypes -----------------------------------------------*/
  52:Core/Src/main.c **** void SystemClock_Config(void);
  53:Core/Src/main.c **** void MX_FREERTOS_Init(void);
  54:Core/Src/main.c **** /* USER CODE BEGIN PFP */
  55:Core/Src/main.c **** uint32_t get_NodeID(void);
  56:Core/Src/main.c **** uint32_t NodeID[1];
  57:Core/Src/main.c **** int16_t counter = 0;
  58:Core/Src/main.c **** uint32_t timer_counter = 0;
  59:Core/Src/main.c **** /* USER CODE END PFP */
  60:Core/Src/main.c **** 
  61:Core/Src/main.c **** /* Private user code ---------------------------------------------------------*/
  62:Core/Src/main.c **** /* USER CODE BEGIN 0 */
  63:Core/Src/main.c **** /* USER CODE END 0 */
  64:Core/Src/main.c **** 
  65:Core/Src/main.c **** /**
  66:Core/Src/main.c ****   * @brief  The application entry point.
  67:Core/Src/main.c ****   * @retval int
  68:Core/Src/main.c ****   */
  69:Core/Src/main.c **** int main(void)
  70:Core/Src/main.c **** {
  71:Core/Src/main.c ****   /* USER CODE BEGIN 1 */
  72:Core/Src/main.c **** 
  73:Core/Src/main.c ****   /* USER CODE END 1 */
  74:Core/Src/main.c **** 
  75:Core/Src/main.c ****   /* MCU Configuration--------------------------------------------------------*/
  76:Core/Src/main.c **** 
  77:Core/Src/main.c ****   /* Reset of all peripherals, Initializes the Flash interface and the Systick. */
  78:Core/Src/main.c ****   HAL_Init();
  79:Core/Src/main.c **** 
  80:Core/Src/main.c ****   /* USER CODE BEGIN Init */
  81:Core/Src/main.c **** 
  82:Core/Src/main.c ****   /* USER CODE END Init */
  83:Core/Src/main.c **** 
  84:Core/Src/main.c ****   /* Configure the system clock */
  85:Core/Src/main.c ****   SystemClock_Config();
  86:Core/Src/main.c **** 
  87:Core/Src/main.c ****   /* USER CODE BEGIN SysInit */
ARM GAS  C:\Users\walker\AppData\Local\Temp\cc6cN231.s 			page 3


  88:Core/Src/main.c **** 
  89:Core/Src/main.c ****   /* USER CODE END SysInit */
  90:Core/Src/main.c **** 
  91:Core/Src/main.c ****   /* Initialize all configured peripherals */
  92:Core/Src/main.c ****   MX_GPIO_Init();
  93:Core/Src/main.c ****   MX_CAN_Init();
  94:Core/Src/main.c ****   MX_TIM3_Init();
  95:Core/Src/main.c ****   MX_TIM17_Init();
  96:Core/Src/main.c ****   MX_TIM2_Init();
  97:Core/Src/main.c ****   MX_TIM6_Init();
  98:Core/Src/main.c ****   /* USER CODE BEGIN 2 */
  99:Core/Src/main.c ****   Flash_Read_Data(0x0800FFFC, NodeID, 1);
 100:Core/Src/main.c ****   HAL_FLASH_Lock();
 101:Core/Src/main.c ****   HAL_TIM_Encoder_Start(&htim2, TIM_CHANNEL_ALL);
 102:Core/Src/main.c ****   HAL_TIM_Base_Start_IT(&htim6);
 103:Core/Src/main.c ****   /* USER CODE END 2 */
 104:Core/Src/main.c **** 
 105:Core/Src/main.c ****   /* Init scheduler */
 106:Core/Src/main.c ****   osKernelInitialize();  /* Call init function for freertos objects (in freertos.c) */
 107:Core/Src/main.c ****   MX_FREERTOS_Init();
 108:Core/Src/main.c **** 
 109:Core/Src/main.c ****   /* Start scheduler */
 110:Core/Src/main.c ****   osKernelStart();
 111:Core/Src/main.c **** 
 112:Core/Src/main.c ****   /* We should never get here as control is now taken by the scheduler */
 113:Core/Src/main.c ****   /* Infinite loop */
 114:Core/Src/main.c ****   /* USER CODE BEGIN WHILE */
 115:Core/Src/main.c ****   while (1)
 116:Core/Src/main.c ****   {
 117:Core/Src/main.c ****     /* USER CODE END WHILE */
 118:Core/Src/main.c **** 
 119:Core/Src/main.c ****     /* USER CODE BEGIN 3 */
 120:Core/Src/main.c ****   }
 121:Core/Src/main.c ****   /* USER CODE END 3 */
 122:Core/Src/main.c **** }
 123:Core/Src/main.c **** 
 124:Core/Src/main.c **** /**
 125:Core/Src/main.c ****   * @brief System Clock Configuration
 126:Core/Src/main.c ****   * @retval None
 127:Core/Src/main.c ****   */
 128:Core/Src/main.c **** void SystemClock_Config(void)
 129:Core/Src/main.c **** {
 130:Core/Src/main.c ****   RCC_OscInitTypeDef RCC_OscInitStruct = {0};
 131:Core/Src/main.c ****   RCC_ClkInitTypeDef RCC_ClkInitStruct = {0};
 132:Core/Src/main.c **** 
 133:Core/Src/main.c ****   /** Initializes the RCC Oscillators according to the specified parameters
 134:Core/Src/main.c ****   * in the RCC_OscInitTypeDef structure.
 135:Core/Src/main.c ****   */
 136:Core/Src/main.c ****   RCC_OscInitStruct.OscillatorType = RCC_OSCILLATORTYPE_HSI;
 137:Core/Src/main.c ****   RCC_OscInitStruct.HSIState = RCC_HSI_ON;
 138:Core/Src/main.c ****   RCC_OscInitStruct.HSICalibrationValue = RCC_HSICALIBRATION_DEFAULT;
 139:Core/Src/main.c ****   RCC_OscInitStruct.PLL.PLLState = RCC_PLL_ON;
 140:Core/Src/main.c ****   RCC_OscInitStruct.PLL.PLLSource = RCC_PLLSOURCE_HSI;
 141:Core/Src/main.c ****   RCC_OscInitStruct.PLL.PLLMUL = RCC_PLL_MUL16;
 142:Core/Src/main.c ****   if (HAL_RCC_OscConfig(&RCC_OscInitStruct) != HAL_OK)
 143:Core/Src/main.c ****   {
 144:Core/Src/main.c ****     Error_Handler();
ARM GAS  C:\Users\walker\AppData\Local\Temp\cc6cN231.s 			page 4


 145:Core/Src/main.c ****   }
 146:Core/Src/main.c **** 
 147:Core/Src/main.c ****   /** Initializes the CPU, AHB and APB buses clocks
 148:Core/Src/main.c ****   */
 149:Core/Src/main.c ****   RCC_ClkInitStruct.ClockType = RCC_CLOCKTYPE_HCLK|RCC_CLOCKTYPE_SYSCLK
 150:Core/Src/main.c ****                               |RCC_CLOCKTYPE_PCLK1|RCC_CLOCKTYPE_PCLK2;
 151:Core/Src/main.c ****   RCC_ClkInitStruct.SYSCLKSource = RCC_SYSCLKSOURCE_PLLCLK;
 152:Core/Src/main.c ****   RCC_ClkInitStruct.AHBCLKDivider = RCC_SYSCLK_DIV1;
 153:Core/Src/main.c ****   RCC_ClkInitStruct.APB1CLKDivider = RCC_HCLK_DIV2;
 154:Core/Src/main.c ****   RCC_ClkInitStruct.APB2CLKDivider = RCC_HCLK_DIV1;
 155:Core/Src/main.c **** 
 156:Core/Src/main.c ****   if (HAL_RCC_ClockConfig(&RCC_ClkInitStruct, FLASH_LATENCY_2) != HAL_OK)
 157:Core/Src/main.c ****   {
 158:Core/Src/main.c ****     Error_Handler();
 159:Core/Src/main.c ****   }
 160:Core/Src/main.c **** }
 161:Core/Src/main.c **** 
 162:Core/Src/main.c **** /* USER CODE BEGIN 4 */
 163:Core/Src/main.c **** 
 164:Core/Src/main.c **** uint32_t get_NodeID(void)
 165:Core/Src/main.c **** {
  29              		.loc 1 165 1 view -0
  30              		.cfi_startproc
  31              		@ args = 0, pretend = 0, frame = 0
  32              		@ frame_needed = 0, uses_anonymous_args = 0
  33              		@ link register save eliminated.
 166:Core/Src/main.c ****   return NodeID[0];
  34              		.loc 1 166 3 view .LVU1
 167:Core/Src/main.c **** }
  35              		.loc 1 167 1 is_stmt 0 view .LVU2
  36 0000 014B     		ldr	r3, .L2
  37 0002 1868     		ldr	r0, [r3]
  38 0004 7047     		bx	lr
  39              	.L3:
  40 0006 00BF     		.align	2
  41              	.L2:
  42 0008 00000000 		.word	.LANCHOR0
  43              		.cfi_endproc
  44              	.LFE170:
  46              		.section	.text.get_counter,"ax",%progbits
  47              		.align	1
  48              		.global	get_counter
  49              		.syntax unified
  50              		.thumb
  51              		.thumb_func
  53              	get_counter:
  54              	.LFB171:
 168:Core/Src/main.c **** 
 169:Core/Src/main.c **** int get_counter(void)
 170:Core/Src/main.c **** {
  55              		.loc 1 170 1 is_stmt 1 view -0
  56              		.cfi_startproc
  57              		@ args = 0, pretend = 0, frame = 0
  58              		@ frame_needed = 0, uses_anonymous_args = 0
  59              		@ link register save eliminated.
 171:Core/Src/main.c ****   counter = ((TIM2->CNT) >> 2);
  60              		.loc 1 171 3 view .LVU4
ARM GAS  C:\Users\walker\AppData\Local\Temp\cc6cN231.s 			page 5


  61              		.loc 1 171 19 is_stmt 0 view .LVU5
  62 0000 4FF08043 		mov	r3, #1073741824
  63 0004 586A     		ldr	r0, [r3, #36]
  64              		.loc 1 171 11 view .LVU6
  65 0006 40F38F00 		sbfx	r0, r0, #2, #16
  66 000a 014B     		ldr	r3, .L5
  67 000c 1880     		strh	r0, [r3]	@ movhi
 172:Core/Src/main.c ****   return counter;
  68              		.loc 1 172 3 is_stmt 1 view .LVU7
 173:Core/Src/main.c **** }
  69              		.loc 1 173 1 is_stmt 0 view .LVU8
  70 000e 7047     		bx	lr
  71              	.L6:
  72              		.align	2
  73              	.L5:
  74 0010 00000000 		.word	.LANCHOR1
  75              		.cfi_endproc
  76              	.LFE171:
  78              		.section	.text.get_timer_counter,"ax",%progbits
  79              		.align	1
  80              		.global	get_timer_counter
  81              		.syntax unified
  82              		.thumb
  83              		.thumb_func
  85              	get_timer_counter:
  86              	.LFB172:
 174:Core/Src/main.c **** 
 175:Core/Src/main.c **** uint32_t get_timer_counter(void)
 176:Core/Src/main.c **** {
  87              		.loc 1 176 1 is_stmt 1 view -0
  88              		.cfi_startproc
  89              		@ args = 0, pretend = 0, frame = 0
  90              		@ frame_needed = 0, uses_anonymous_args = 0
  91              		@ link register save eliminated.
 177:Core/Src/main.c ****   return timer_counter;
  92              		.loc 1 177 3 view .LVU10
 178:Core/Src/main.c **** }
  93              		.loc 1 178 1 is_stmt 0 view .LVU11
  94 0000 014B     		ldr	r3, .L8
  95 0002 1868     		ldr	r0, [r3]
  96 0004 7047     		bx	lr
  97              	.L9:
  98 0006 00BF     		.align	2
  99              	.L8:
 100 0008 00000000 		.word	.LANCHOR2
 101              		.cfi_endproc
 102              	.LFE172:
 104              		.section	.text.set_timer_counter,"ax",%progbits
 105              		.align	1
 106              		.global	set_timer_counter
 107              		.syntax unified
 108              		.thumb
 109              		.thumb_func
 111              	set_timer_counter:
 112              	.LVL0:
 113              	.LFB173:
 179:Core/Src/main.c **** 
ARM GAS  C:\Users\walker\AppData\Local\Temp\cc6cN231.s 			page 6


 180:Core/Src/main.c **** void set_timer_counter(uint16_t time_variable)
 181:Core/Src/main.c **** {
 114              		.loc 1 181 1 is_stmt 1 view -0
 115              		.cfi_startproc
 116              		@ args = 0, pretend = 0, frame = 0
 117              		@ frame_needed = 0, uses_anonymous_args = 0
 118              		@ link register save eliminated.
 182:Core/Src/main.c ****   timer_counter = time_variable;
 119              		.loc 1 182 3 view .LVU13
 120              		.loc 1 182 17 is_stmt 0 view .LVU14
 121 0000 014B     		ldr	r3, .L11
 122 0002 1860     		str	r0, [r3]
 183:Core/Src/main.c **** }
 123              		.loc 1 183 1 view .LVU15
 124 0004 7047     		bx	lr
 125              	.L12:
 126 0006 00BF     		.align	2
 127              	.L11:
 128 0008 00000000 		.word	.LANCHOR2
 129              		.cfi_endproc
 130              	.LFE173:
 132              		.section	.text.HAL_TIM_PeriodElapsedCallback,"ax",%progbits
 133              		.align	1
 134              		.global	HAL_TIM_PeriodElapsedCallback
 135              		.syntax unified
 136              		.thumb
 137              		.thumb_func
 139              	HAL_TIM_PeriodElapsedCallback:
 140              	.LVL1:
 141              	.LFB174:
 184:Core/Src/main.c **** 
 185:Core/Src/main.c **** /* USER CODE END 4 */
 186:Core/Src/main.c **** 
 187:Core/Src/main.c **** /**
 188:Core/Src/main.c ****   * @brief  Period elapsed callback in non blocking mode
 189:Core/Src/main.c ****   * @note   This function is called  when TIM1 interrupt took place, inside
 190:Core/Src/main.c ****   * HAL_TIM_IRQHandler(). It makes a direct call to HAL_IncTick() to increment
 191:Core/Src/main.c ****   * a global variable "uwTick" used as application time base.
 192:Core/Src/main.c ****   * @param  htim : TIM handle
 193:Core/Src/main.c ****   * @retval None
 194:Core/Src/main.c ****   */
 195:Core/Src/main.c **** void HAL_TIM_PeriodElapsedCallback(TIM_HandleTypeDef *htim)
 196:Core/Src/main.c **** {
 142              		.loc 1 196 1 is_stmt 1 view -0
 143              		.cfi_startproc
 144              		@ args = 0, pretend = 0, frame = 0
 145              		@ frame_needed = 0, uses_anonymous_args = 0
 146              		.loc 1 196 1 is_stmt 0 view .LVU17
 147 0000 10B5     		push	{r4, lr}
 148              	.LCFI0:
 149              		.cfi_def_cfa_offset 8
 150              		.cfi_offset 4, -8
 151              		.cfi_offset 14, -4
 152 0002 0446     		mov	r4, r0
 197:Core/Src/main.c ****   /* USER CODE BEGIN Callback 0 */
 198:Core/Src/main.c **** 
 199:Core/Src/main.c ****   /* USER CODE END Callback 0 */
ARM GAS  C:\Users\walker\AppData\Local\Temp\cc6cN231.s 			page 7


 200:Core/Src/main.c ****   if (htim->Instance == TIM1) {
 153              		.loc 1 200 3 is_stmt 1 view .LVU18
 154              		.loc 1 200 11 is_stmt 0 view .LVU19
 155 0004 0268     		ldr	r2, [r0]
 156              		.loc 1 200 6 view .LVU20
 157 0006 0C4B     		ldr	r3, .L21
 158 0008 9A42     		cmp	r2, r3
 159 000a 09D0     		beq	.L18
 160              	.LVL2:
 161              	.L14:
 201:Core/Src/main.c ****     HAL_IncTick();
 202:Core/Src/main.c ****   }
 203:Core/Src/main.c ****   /* USER CODE BEGIN Callback 1 */
 204:Core/Src/main.c ****   if (htim == canopenNodeSTM32->timerHandle)
 162              		.loc 1 204 3 is_stmt 1 view .LVU21
 163              		.loc 1 204 31 is_stmt 0 view .LVU22
 164 000c 0B4B     		ldr	r3, .L21+4
 165 000e 1B68     		ldr	r3, [r3]
 166 0010 5B68     		ldr	r3, [r3, #4]
 167              		.loc 1 204 6 view .LVU23
 168 0012 A342     		cmp	r3, r4
 169 0014 07D0     		beq	.L19
 170              	.L15:
 205:Core/Src/main.c ****   {
 206:Core/Src/main.c ****     canopen_app_interrupt();
 207:Core/Src/main.c ****   }
 208:Core/Src/main.c **** 
 209:Core/Src/main.c ****   if (htim->Instance == TIM6)
 171              		.loc 1 209 3 is_stmt 1 view .LVU24
 172              		.loc 1 209 11 is_stmt 0 view .LVU25
 173 0016 2268     		ldr	r2, [r4]
 174              		.loc 1 209 6 view .LVU26
 175 0018 094B     		ldr	r3, .L21+8
 176 001a 9A42     		cmp	r2, r3
 177 001c 06D0     		beq	.L20
 178              	.L13:
 210:Core/Src/main.c ****   {
 211:Core/Src/main.c ****     timer_counter += 1;
 212:Core/Src/main.c ****   }
 213:Core/Src/main.c ****   /* USER CODE END Callback 1 */
 214:Core/Src/main.c **** }
 179              		.loc 1 214 1 view .LVU27
 180 001e 10BD     		pop	{r4, pc}
 181              	.LVL3:
 182              	.L18:
 201:Core/Src/main.c ****   }
 183              		.loc 1 201 5 is_stmt 1 view .LVU28
 184 0020 FFF7FEFF 		bl	HAL_IncTick
 185              	.LVL4:
 201:Core/Src/main.c ****   }
 186              		.loc 1 201 5 is_stmt 0 view .LVU29
 187 0024 F2E7     		b	.L14
 188              	.L19:
 206:Core/Src/main.c ****   }
 189              		.loc 1 206 5 is_stmt 1 view .LVU30
 190 0026 FFF7FEFF 		bl	canopen_app_interrupt
 191              	.LVL5:
ARM GAS  C:\Users\walker\AppData\Local\Temp\cc6cN231.s 			page 8


 192 002a F4E7     		b	.L15
 193              	.L20:
 211:Core/Src/main.c ****   }
 194              		.loc 1 211 5 view .LVU31
 211:Core/Src/main.c ****   }
 195              		.loc 1 211 19 is_stmt 0 view .LVU32
 196 002c 054A     		ldr	r2, .L21+12
 197 002e 1368     		ldr	r3, [r2]
 198 0030 0133     		adds	r3, r3, #1
 199 0032 1360     		str	r3, [r2]
 200              		.loc 1 214 1 view .LVU33
 201 0034 F3E7     		b	.L13
 202              	.L22:
 203 0036 00BF     		.align	2
 204              	.L21:
 205 0038 002C0140 		.word	1073818624
 206 003c 00000000 		.word	canopenNodeSTM32
 207 0040 00100040 		.word	1073745920
 208 0044 00000000 		.word	.LANCHOR2
 209              		.cfi_endproc
 210              	.LFE174:
 212              		.section	.text.Error_Handler,"ax",%progbits
 213              		.align	1
 214              		.global	Error_Handler
 215              		.syntax unified
 216              		.thumb
 217              		.thumb_func
 219              	Error_Handler:
 220              	.LFB175:
 215:Core/Src/main.c **** 
 216:Core/Src/main.c **** /**
 217:Core/Src/main.c ****   * @brief  This function is executed in case of error occurrence.
 218:Core/Src/main.c ****   * @retval None
 219:Core/Src/main.c ****   */
 220:Core/Src/main.c **** void Error_Handler(void)
 221:Core/Src/main.c **** {
 221              		.loc 1 221 1 is_stmt 1 view -0
 222              		.cfi_startproc
 223              		@ Volatile: function does not return.
 224              		@ args = 0, pretend = 0, frame = 0
 225              		@ frame_needed = 0, uses_anonymous_args = 0
 226              		@ link register save eliminated.
 222:Core/Src/main.c ****   /* USER CODE BEGIN Error_Handler_Debug */
 223:Core/Src/main.c ****   /* User can add his own implementation to report the HAL error return state */
 224:Core/Src/main.c ****   __disable_irq();
 227              		.loc 1 224 3 view .LVU35
 228              	.LBB4:
 229              	.LBI4:
 230              		.file 2 "Drivers/CMSIS/Include/cmsis_gcc.h"
   1:Drivers/CMSIS/Include/cmsis_gcc.h **** /**************************************************************************//**
   2:Drivers/CMSIS/Include/cmsis_gcc.h ****  * @file     cmsis_gcc.h
   3:Drivers/CMSIS/Include/cmsis_gcc.h ****  * @brief    CMSIS compiler GCC header file
   4:Drivers/CMSIS/Include/cmsis_gcc.h ****  * @version  V5.0.4
   5:Drivers/CMSIS/Include/cmsis_gcc.h ****  * @date     09. April 2018
   6:Drivers/CMSIS/Include/cmsis_gcc.h ****  ******************************************************************************/
   7:Drivers/CMSIS/Include/cmsis_gcc.h **** /*
   8:Drivers/CMSIS/Include/cmsis_gcc.h ****  * Copyright (c) 2009-2018 Arm Limited. All rights reserved.
ARM GAS  C:\Users\walker\AppData\Local\Temp\cc6cN231.s 			page 9


   9:Drivers/CMSIS/Include/cmsis_gcc.h ****  *
  10:Drivers/CMSIS/Include/cmsis_gcc.h ****  * SPDX-License-Identifier: Apache-2.0
  11:Drivers/CMSIS/Include/cmsis_gcc.h ****  *
  12:Drivers/CMSIS/Include/cmsis_gcc.h ****  * Licensed under the Apache License, Version 2.0 (the License); you may
  13:Drivers/CMSIS/Include/cmsis_gcc.h ****  * not use this file except in compliance with the License.
  14:Drivers/CMSIS/Include/cmsis_gcc.h ****  * You may obtain a copy of the License at
  15:Drivers/CMSIS/Include/cmsis_gcc.h ****  *
  16:Drivers/CMSIS/Include/cmsis_gcc.h ****  * www.apache.org/licenses/LICENSE-2.0
  17:Drivers/CMSIS/Include/cmsis_gcc.h ****  *
  18:Drivers/CMSIS/Include/cmsis_gcc.h ****  * Unless required by applicable law or agreed to in writing, software
  19:Drivers/CMSIS/Include/cmsis_gcc.h ****  * distributed under the License is distributed on an AS IS BASIS, WITHOUT
  20:Drivers/CMSIS/Include/cmsis_gcc.h ****  * WARRANTIES OR CONDITIONS OF ANY KIND, either express or implied.
  21:Drivers/CMSIS/Include/cmsis_gcc.h ****  * See the License for the specific language governing permissions and
  22:Drivers/CMSIS/Include/cmsis_gcc.h ****  * limitations under the License.
  23:Drivers/CMSIS/Include/cmsis_gcc.h ****  */
  24:Drivers/CMSIS/Include/cmsis_gcc.h **** 
  25:Drivers/CMSIS/Include/cmsis_gcc.h **** #ifndef __CMSIS_GCC_H
  26:Drivers/CMSIS/Include/cmsis_gcc.h **** #define __CMSIS_GCC_H
  27:Drivers/CMSIS/Include/cmsis_gcc.h **** 
  28:Drivers/CMSIS/Include/cmsis_gcc.h **** /* ignore some GCC warnings */
  29:Drivers/CMSIS/Include/cmsis_gcc.h **** #pragma GCC diagnostic push
  30:Drivers/CMSIS/Include/cmsis_gcc.h **** #pragma GCC diagnostic ignored "-Wsign-conversion"
  31:Drivers/CMSIS/Include/cmsis_gcc.h **** #pragma GCC diagnostic ignored "-Wconversion"
  32:Drivers/CMSIS/Include/cmsis_gcc.h **** #pragma GCC diagnostic ignored "-Wunused-parameter"
  33:Drivers/CMSIS/Include/cmsis_gcc.h **** 
  34:Drivers/CMSIS/Include/cmsis_gcc.h **** /* Fallback for __has_builtin */
  35:Drivers/CMSIS/Include/cmsis_gcc.h **** #ifndef __has_builtin
  36:Drivers/CMSIS/Include/cmsis_gcc.h ****   #define __has_builtin(x) (0)
  37:Drivers/CMSIS/Include/cmsis_gcc.h **** #endif
  38:Drivers/CMSIS/Include/cmsis_gcc.h **** 
  39:Drivers/CMSIS/Include/cmsis_gcc.h **** /* CMSIS compiler specific defines */
  40:Drivers/CMSIS/Include/cmsis_gcc.h **** #ifndef   __ASM
  41:Drivers/CMSIS/Include/cmsis_gcc.h ****   #define __ASM                                  __asm
  42:Drivers/CMSIS/Include/cmsis_gcc.h **** #endif
  43:Drivers/CMSIS/Include/cmsis_gcc.h **** #ifndef   __INLINE
  44:Drivers/CMSIS/Include/cmsis_gcc.h ****   #define __INLINE                               inline
  45:Drivers/CMSIS/Include/cmsis_gcc.h **** #endif
  46:Drivers/CMSIS/Include/cmsis_gcc.h **** #ifndef   __STATIC_INLINE
  47:Drivers/CMSIS/Include/cmsis_gcc.h ****   #define __STATIC_INLINE                        static inline
  48:Drivers/CMSIS/Include/cmsis_gcc.h **** #endif
  49:Drivers/CMSIS/Include/cmsis_gcc.h **** #ifndef   __STATIC_FORCEINLINE                 
  50:Drivers/CMSIS/Include/cmsis_gcc.h ****   #define __STATIC_FORCEINLINE                   __attribute__((always_inline)) static inline
  51:Drivers/CMSIS/Include/cmsis_gcc.h **** #endif                                           
  52:Drivers/CMSIS/Include/cmsis_gcc.h **** #ifndef   __NO_RETURN
  53:Drivers/CMSIS/Include/cmsis_gcc.h ****   #define __NO_RETURN                            __attribute__((__noreturn__))
  54:Drivers/CMSIS/Include/cmsis_gcc.h **** #endif
  55:Drivers/CMSIS/Include/cmsis_gcc.h **** #ifndef   __USED
  56:Drivers/CMSIS/Include/cmsis_gcc.h ****   #define __USED                                 __attribute__((used))
  57:Drivers/CMSIS/Include/cmsis_gcc.h **** #endif
  58:Drivers/CMSIS/Include/cmsis_gcc.h **** #ifndef   __WEAK
  59:Drivers/CMSIS/Include/cmsis_gcc.h ****   #define __WEAK                                 __attribute__((weak))
  60:Drivers/CMSIS/Include/cmsis_gcc.h **** #endif
  61:Drivers/CMSIS/Include/cmsis_gcc.h **** #ifndef   __PACKED
  62:Drivers/CMSIS/Include/cmsis_gcc.h ****   #define __PACKED                               __attribute__((packed, aligned(1)))
  63:Drivers/CMSIS/Include/cmsis_gcc.h **** #endif
  64:Drivers/CMSIS/Include/cmsis_gcc.h **** #ifndef   __PACKED_STRUCT
  65:Drivers/CMSIS/Include/cmsis_gcc.h ****   #define __PACKED_STRUCT                        struct __attribute__((packed, aligned(1)))
ARM GAS  C:\Users\walker\AppData\Local\Temp\cc6cN231.s 			page 10


  66:Drivers/CMSIS/Include/cmsis_gcc.h **** #endif
  67:Drivers/CMSIS/Include/cmsis_gcc.h **** #ifndef   __PACKED_UNION
  68:Drivers/CMSIS/Include/cmsis_gcc.h ****   #define __PACKED_UNION                         union __attribute__((packed, aligned(1)))
  69:Drivers/CMSIS/Include/cmsis_gcc.h **** #endif
  70:Drivers/CMSIS/Include/cmsis_gcc.h **** #ifndef   __UNALIGNED_UINT32        /* deprecated */
  71:Drivers/CMSIS/Include/cmsis_gcc.h ****   #pragma GCC diagnostic push
  72:Drivers/CMSIS/Include/cmsis_gcc.h ****   #pragma GCC diagnostic ignored "-Wpacked"
  73:Drivers/CMSIS/Include/cmsis_gcc.h ****   #pragma GCC diagnostic ignored "-Wattributes"
  74:Drivers/CMSIS/Include/cmsis_gcc.h ****   struct __attribute__((packed)) T_UINT32 { uint32_t v; };
  75:Drivers/CMSIS/Include/cmsis_gcc.h ****   #pragma GCC diagnostic pop
  76:Drivers/CMSIS/Include/cmsis_gcc.h ****   #define __UNALIGNED_UINT32(x)                  (((struct T_UINT32 *)(x))->v)
  77:Drivers/CMSIS/Include/cmsis_gcc.h **** #endif
  78:Drivers/CMSIS/Include/cmsis_gcc.h **** #ifndef   __UNALIGNED_UINT16_WRITE
  79:Drivers/CMSIS/Include/cmsis_gcc.h ****   #pragma GCC diagnostic push
  80:Drivers/CMSIS/Include/cmsis_gcc.h ****   #pragma GCC diagnostic ignored "-Wpacked"
  81:Drivers/CMSIS/Include/cmsis_gcc.h ****   #pragma GCC diagnostic ignored "-Wattributes"
  82:Drivers/CMSIS/Include/cmsis_gcc.h ****   __PACKED_STRUCT T_UINT16_WRITE { uint16_t v; };
  83:Drivers/CMSIS/Include/cmsis_gcc.h ****   #pragma GCC diagnostic pop
  84:Drivers/CMSIS/Include/cmsis_gcc.h ****   #define __UNALIGNED_UINT16_WRITE(addr, val)    (void)((((struct T_UINT16_WRITE *)(void *)(addr))-
  85:Drivers/CMSIS/Include/cmsis_gcc.h **** #endif
  86:Drivers/CMSIS/Include/cmsis_gcc.h **** #ifndef   __UNALIGNED_UINT16_READ
  87:Drivers/CMSIS/Include/cmsis_gcc.h ****   #pragma GCC diagnostic push
  88:Drivers/CMSIS/Include/cmsis_gcc.h ****   #pragma GCC diagnostic ignored "-Wpacked"
  89:Drivers/CMSIS/Include/cmsis_gcc.h ****   #pragma GCC diagnostic ignored "-Wattributes"
  90:Drivers/CMSIS/Include/cmsis_gcc.h ****   __PACKED_STRUCT T_UINT16_READ { uint16_t v; };
  91:Drivers/CMSIS/Include/cmsis_gcc.h ****   #pragma GCC diagnostic pop
  92:Drivers/CMSIS/Include/cmsis_gcc.h ****   #define __UNALIGNED_UINT16_READ(addr)          (((const struct T_UINT16_READ *)(const void *)(add
  93:Drivers/CMSIS/Include/cmsis_gcc.h **** #endif
  94:Drivers/CMSIS/Include/cmsis_gcc.h **** #ifndef   __UNALIGNED_UINT32_WRITE
  95:Drivers/CMSIS/Include/cmsis_gcc.h ****   #pragma GCC diagnostic push
  96:Drivers/CMSIS/Include/cmsis_gcc.h ****   #pragma GCC diagnostic ignored "-Wpacked"
  97:Drivers/CMSIS/Include/cmsis_gcc.h ****   #pragma GCC diagnostic ignored "-Wattributes"
  98:Drivers/CMSIS/Include/cmsis_gcc.h ****   __PACKED_STRUCT T_UINT32_WRITE { uint32_t v; };
  99:Drivers/CMSIS/Include/cmsis_gcc.h ****   #pragma GCC diagnostic pop
 100:Drivers/CMSIS/Include/cmsis_gcc.h ****   #define __UNALIGNED_UINT32_WRITE(addr, val)    (void)((((struct T_UINT32_WRITE *)(void *)(addr))-
 101:Drivers/CMSIS/Include/cmsis_gcc.h **** #endif
 102:Drivers/CMSIS/Include/cmsis_gcc.h **** #ifndef   __UNALIGNED_UINT32_READ
 103:Drivers/CMSIS/Include/cmsis_gcc.h ****   #pragma GCC diagnostic push
 104:Drivers/CMSIS/Include/cmsis_gcc.h ****   #pragma GCC diagnostic ignored "-Wpacked"
 105:Drivers/CMSIS/Include/cmsis_gcc.h ****   #pragma GCC diagnostic ignored "-Wattributes"
 106:Drivers/CMSIS/Include/cmsis_gcc.h ****   __PACKED_STRUCT T_UINT32_READ { uint32_t v; };
 107:Drivers/CMSIS/Include/cmsis_gcc.h ****   #pragma GCC diagnostic pop
 108:Drivers/CMSIS/Include/cmsis_gcc.h ****   #define __UNALIGNED_UINT32_READ(addr)          (((const struct T_UINT32_READ *)(const void *)(add
 109:Drivers/CMSIS/Include/cmsis_gcc.h **** #endif
 110:Drivers/CMSIS/Include/cmsis_gcc.h **** #ifndef   __ALIGNED
 111:Drivers/CMSIS/Include/cmsis_gcc.h ****   #define __ALIGNED(x)                           __attribute__((aligned(x)))
 112:Drivers/CMSIS/Include/cmsis_gcc.h **** #endif
 113:Drivers/CMSIS/Include/cmsis_gcc.h **** #ifndef   __RESTRICT
 114:Drivers/CMSIS/Include/cmsis_gcc.h ****   #define __RESTRICT                             __restrict
 115:Drivers/CMSIS/Include/cmsis_gcc.h **** #endif
 116:Drivers/CMSIS/Include/cmsis_gcc.h **** 
 117:Drivers/CMSIS/Include/cmsis_gcc.h **** 
 118:Drivers/CMSIS/Include/cmsis_gcc.h **** /* ###########################  Core Function Access  ########################### */
 119:Drivers/CMSIS/Include/cmsis_gcc.h **** /** \ingroup  CMSIS_Core_FunctionInterface
 120:Drivers/CMSIS/Include/cmsis_gcc.h ****     \defgroup CMSIS_Core_RegAccFunctions CMSIS Core Register Access Functions
 121:Drivers/CMSIS/Include/cmsis_gcc.h ****   @{
 122:Drivers/CMSIS/Include/cmsis_gcc.h ****  */
ARM GAS  C:\Users\walker\AppData\Local\Temp\cc6cN231.s 			page 11


 123:Drivers/CMSIS/Include/cmsis_gcc.h **** 
 124:Drivers/CMSIS/Include/cmsis_gcc.h **** /**
 125:Drivers/CMSIS/Include/cmsis_gcc.h ****   \brief   Enable IRQ Interrupts
 126:Drivers/CMSIS/Include/cmsis_gcc.h ****   \details Enables IRQ interrupts by clearing the I-bit in the CPSR.
 127:Drivers/CMSIS/Include/cmsis_gcc.h ****            Can only be executed in Privileged modes.
 128:Drivers/CMSIS/Include/cmsis_gcc.h ****  */
 129:Drivers/CMSIS/Include/cmsis_gcc.h **** __STATIC_FORCEINLINE void __enable_irq(void)
 130:Drivers/CMSIS/Include/cmsis_gcc.h **** {
 131:Drivers/CMSIS/Include/cmsis_gcc.h ****   __ASM volatile ("cpsie i" : : : "memory");
 132:Drivers/CMSIS/Include/cmsis_gcc.h **** }
 133:Drivers/CMSIS/Include/cmsis_gcc.h **** 
 134:Drivers/CMSIS/Include/cmsis_gcc.h **** 
 135:Drivers/CMSIS/Include/cmsis_gcc.h **** /**
 136:Drivers/CMSIS/Include/cmsis_gcc.h ****   \brief   Disable IRQ Interrupts
 137:Drivers/CMSIS/Include/cmsis_gcc.h ****   \details Disables IRQ interrupts by setting the I-bit in the CPSR.
 138:Drivers/CMSIS/Include/cmsis_gcc.h ****            Can only be executed in Privileged modes.
 139:Drivers/CMSIS/Include/cmsis_gcc.h ****  */
 140:Drivers/CMSIS/Include/cmsis_gcc.h **** __STATIC_FORCEINLINE void __disable_irq(void)
 231              		.loc 2 140 27 view .LVU36
 232              	.LBB5:
 141:Drivers/CMSIS/Include/cmsis_gcc.h **** {
 142:Drivers/CMSIS/Include/cmsis_gcc.h ****   __ASM volatile ("cpsid i" : : : "memory");
 233              		.loc 2 142 3 view .LVU37
 234              		.syntax unified
 235              	@ 142 "Drivers/CMSIS/Include/cmsis_gcc.h" 1
 236 0000 72B6     		cpsid i
 237              	@ 0 "" 2
 238              		.thumb
 239              		.syntax unified
 240              	.L24:
 241              	.LBE5:
 242              	.LBE4:
 225:Core/Src/main.c ****   while (1)
 243              		.loc 1 225 3 discriminator 1 view .LVU38
 226:Core/Src/main.c ****   {
 227:Core/Src/main.c ****   }
 244              		.loc 1 227 3 discriminator 1 view .LVU39
 225:Core/Src/main.c ****   while (1)
 245              		.loc 1 225 9 discriminator 1 view .LVU40
 246 0002 FEE7     		b	.L24
 247              		.cfi_endproc
 248              	.LFE175:
 250              		.section	.text.SystemClock_Config,"ax",%progbits
 251              		.align	1
 252              		.global	SystemClock_Config
 253              		.syntax unified
 254              		.thumb
 255              		.thumb_func
 257              	SystemClock_Config:
 258              	.LFB169:
 129:Core/Src/main.c ****   RCC_OscInitTypeDef RCC_OscInitStruct = {0};
 259              		.loc 1 129 1 view -0
 260              		.cfi_startproc
 261              		@ args = 0, pretend = 0, frame = 64
 262              		@ frame_needed = 0, uses_anonymous_args = 0
 263 0000 00B5     		push	{lr}
 264              	.LCFI1:
ARM GAS  C:\Users\walker\AppData\Local\Temp\cc6cN231.s 			page 12


 265              		.cfi_def_cfa_offset 4
 266              		.cfi_offset 14, -4
 267 0002 91B0     		sub	sp, sp, #68
 268              	.LCFI2:
 269              		.cfi_def_cfa_offset 72
 130:Core/Src/main.c ****   RCC_ClkInitTypeDef RCC_ClkInitStruct = {0};
 270              		.loc 1 130 3 view .LVU42
 130:Core/Src/main.c ****   RCC_ClkInitTypeDef RCC_ClkInitStruct = {0};
 271              		.loc 1 130 22 is_stmt 0 view .LVU43
 272 0004 2822     		movs	r2, #40
 273 0006 0021     		movs	r1, #0
 274 0008 06A8     		add	r0, sp, #24
 275 000a FFF7FEFF 		bl	memset
 276              	.LVL6:
 131:Core/Src/main.c **** 
 277              		.loc 1 131 3 is_stmt 1 view .LVU44
 131:Core/Src/main.c **** 
 278              		.loc 1 131 22 is_stmt 0 view .LVU45
 279 000e 0023     		movs	r3, #0
 280 0010 0193     		str	r3, [sp, #4]
 281 0012 0293     		str	r3, [sp, #8]
 282 0014 0393     		str	r3, [sp, #12]
 283 0016 0493     		str	r3, [sp, #16]
 284 0018 0593     		str	r3, [sp, #20]
 136:Core/Src/main.c ****   RCC_OscInitStruct.HSIState = RCC_HSI_ON;
 285              		.loc 1 136 3 is_stmt 1 view .LVU46
 136:Core/Src/main.c ****   RCC_OscInitStruct.HSIState = RCC_HSI_ON;
 286              		.loc 1 136 36 is_stmt 0 view .LVU47
 287 001a 0223     		movs	r3, #2
 288 001c 0693     		str	r3, [sp, #24]
 137:Core/Src/main.c ****   RCC_OscInitStruct.HSICalibrationValue = RCC_HSICALIBRATION_DEFAULT;
 289              		.loc 1 137 3 is_stmt 1 view .LVU48
 137:Core/Src/main.c ****   RCC_OscInitStruct.HSICalibrationValue = RCC_HSICALIBRATION_DEFAULT;
 290              		.loc 1 137 30 is_stmt 0 view .LVU49
 291 001e 0122     		movs	r2, #1
 292 0020 0A92     		str	r2, [sp, #40]
 138:Core/Src/main.c ****   RCC_OscInitStruct.PLL.PLLState = RCC_PLL_ON;
 293              		.loc 1 138 3 is_stmt 1 view .LVU50
 138:Core/Src/main.c ****   RCC_OscInitStruct.PLL.PLLState = RCC_PLL_ON;
 294              		.loc 1 138 41 is_stmt 0 view .LVU51
 295 0022 1022     		movs	r2, #16
 296 0024 0B92     		str	r2, [sp, #44]
 139:Core/Src/main.c ****   RCC_OscInitStruct.PLL.PLLSource = RCC_PLLSOURCE_HSI;
 297              		.loc 1 139 3 is_stmt 1 view .LVU52
 139:Core/Src/main.c ****   RCC_OscInitStruct.PLL.PLLSource = RCC_PLLSOURCE_HSI;
 298              		.loc 1 139 34 is_stmt 0 view .LVU53
 299 0026 0D93     		str	r3, [sp, #52]
 140:Core/Src/main.c ****   RCC_OscInitStruct.PLL.PLLMUL = RCC_PLL_MUL16;
 300              		.loc 1 140 3 is_stmt 1 view .LVU54
 141:Core/Src/main.c ****   if (HAL_RCC_OscConfig(&RCC_OscInitStruct) != HAL_OK)
 301              		.loc 1 141 3 view .LVU55
 141:Core/Src/main.c ****   if (HAL_RCC_OscConfig(&RCC_OscInitStruct) != HAL_OK)
 302              		.loc 1 141 32 is_stmt 0 view .LVU56
 303 0028 4FF46013 		mov	r3, #3670016
 304 002c 0F93     		str	r3, [sp, #60]
 142:Core/Src/main.c ****   {
 305              		.loc 1 142 3 is_stmt 1 view .LVU57
ARM GAS  C:\Users\walker\AppData\Local\Temp\cc6cN231.s 			page 13


 142:Core/Src/main.c ****   {
 306              		.loc 1 142 7 is_stmt 0 view .LVU58
 307 002e 06A8     		add	r0, sp, #24
 308 0030 FFF7FEFF 		bl	HAL_RCC_OscConfig
 309              	.LVL7:
 142:Core/Src/main.c ****   {
 310              		.loc 1 142 6 view .LVU59
 311 0034 80B9     		cbnz	r0, .L29
 149:Core/Src/main.c ****                               |RCC_CLOCKTYPE_PCLK1|RCC_CLOCKTYPE_PCLK2;
 312              		.loc 1 149 3 is_stmt 1 view .LVU60
 149:Core/Src/main.c ****                               |RCC_CLOCKTYPE_PCLK1|RCC_CLOCKTYPE_PCLK2;
 313              		.loc 1 149 31 is_stmt 0 view .LVU61
 314 0036 0F23     		movs	r3, #15
 315 0038 0193     		str	r3, [sp, #4]
 151:Core/Src/main.c ****   RCC_ClkInitStruct.AHBCLKDivider = RCC_SYSCLK_DIV1;
 316              		.loc 1 151 3 is_stmt 1 view .LVU62
 151:Core/Src/main.c ****   RCC_ClkInitStruct.AHBCLKDivider = RCC_SYSCLK_DIV1;
 317              		.loc 1 151 34 is_stmt 0 view .LVU63
 318 003a 0221     		movs	r1, #2
 319 003c 0291     		str	r1, [sp, #8]
 152:Core/Src/main.c ****   RCC_ClkInitStruct.APB1CLKDivider = RCC_HCLK_DIV2;
 320              		.loc 1 152 3 is_stmt 1 view .LVU64
 152:Core/Src/main.c ****   RCC_ClkInitStruct.APB1CLKDivider = RCC_HCLK_DIV2;
 321              		.loc 1 152 35 is_stmt 0 view .LVU65
 322 003e 0023     		movs	r3, #0
 323 0040 0393     		str	r3, [sp, #12]
 153:Core/Src/main.c ****   RCC_ClkInitStruct.APB2CLKDivider = RCC_HCLK_DIV1;
 324              		.loc 1 153 3 is_stmt 1 view .LVU66
 153:Core/Src/main.c ****   RCC_ClkInitStruct.APB2CLKDivider = RCC_HCLK_DIV1;
 325              		.loc 1 153 36 is_stmt 0 view .LVU67
 326 0042 4FF48062 		mov	r2, #1024
 327 0046 0492     		str	r2, [sp, #16]
 154:Core/Src/main.c **** 
 328              		.loc 1 154 3 is_stmt 1 view .LVU68
 154:Core/Src/main.c **** 
 329              		.loc 1 154 36 is_stmt 0 view .LVU69
 330 0048 0593     		str	r3, [sp, #20]
 156:Core/Src/main.c ****   {
 331              		.loc 1 156 3 is_stmt 1 view .LVU70
 156:Core/Src/main.c ****   {
 332              		.loc 1 156 7 is_stmt 0 view .LVU71
 333 004a 01A8     		add	r0, sp, #4
 334 004c FFF7FEFF 		bl	HAL_RCC_ClockConfig
 335              	.LVL8:
 156:Core/Src/main.c ****   {
 336              		.loc 1 156 6 view .LVU72
 337 0050 20B9     		cbnz	r0, .L30
 160:Core/Src/main.c **** 
 338              		.loc 1 160 1 view .LVU73
 339 0052 11B0     		add	sp, sp, #68
 340              	.LCFI3:
 341              		.cfi_remember_state
 342              		.cfi_def_cfa_offset 4
 343              		@ sp needed
 344 0054 5DF804FB 		ldr	pc, [sp], #4
 345              	.L29:
 346              	.LCFI4:
ARM GAS  C:\Users\walker\AppData\Local\Temp\cc6cN231.s 			page 14


 347              		.cfi_restore_state
 144:Core/Src/main.c ****   }
 348              		.loc 1 144 5 is_stmt 1 view .LVU74
 349 0058 FFF7FEFF 		bl	Error_Handler
 350              	.LVL9:
 351              	.L30:
 158:Core/Src/main.c ****   }
 352              		.loc 1 158 5 view .LVU75
 353 005c FFF7FEFF 		bl	Error_Handler
 354              	.LVL10:
 355              		.cfi_endproc
 356              	.LFE169:
 358              		.section	.text.main,"ax",%progbits
 359              		.align	1
 360              		.global	main
 361              		.syntax unified
 362              		.thumb
 363              		.thumb_func
 365              	main:
 366              	.LFB168:
  70:Core/Src/main.c ****   /* USER CODE BEGIN 1 */
 367              		.loc 1 70 1 view -0
 368              		.cfi_startproc
 369              		@ Volatile: function does not return.
 370              		@ args = 0, pretend = 0, frame = 0
 371              		@ frame_needed = 0, uses_anonymous_args = 0
 372 0000 08B5     		push	{r3, lr}
 373              	.LCFI5:
 374              		.cfi_def_cfa_offset 8
 375              		.cfi_offset 3, -8
 376              		.cfi_offset 14, -4
  78:Core/Src/main.c **** 
 377              		.loc 1 78 3 view .LVU77
 378 0002 FFF7FEFF 		bl	HAL_Init
 379              	.LVL11:
  85:Core/Src/main.c **** 
 380              		.loc 1 85 3 view .LVU78
 381 0006 FFF7FEFF 		bl	SystemClock_Config
 382              	.LVL12:
  92:Core/Src/main.c ****   MX_CAN_Init();
 383              		.loc 1 92 3 view .LVU79
 384 000a FFF7FEFF 		bl	MX_GPIO_Init
 385              	.LVL13:
  93:Core/Src/main.c ****   MX_TIM3_Init();
 386              		.loc 1 93 3 view .LVU80
 387 000e FFF7FEFF 		bl	MX_CAN_Init
 388              	.LVL14:
  94:Core/Src/main.c ****   MX_TIM17_Init();
 389              		.loc 1 94 3 view .LVU81
 390 0012 FFF7FEFF 		bl	MX_TIM3_Init
 391              	.LVL15:
  95:Core/Src/main.c ****   MX_TIM2_Init();
 392              		.loc 1 95 3 view .LVU82
 393 0016 FFF7FEFF 		bl	MX_TIM17_Init
 394              	.LVL16:
  96:Core/Src/main.c ****   MX_TIM6_Init();
 395              		.loc 1 96 3 view .LVU83
ARM GAS  C:\Users\walker\AppData\Local\Temp\cc6cN231.s 			page 15


 396 001a FFF7FEFF 		bl	MX_TIM2_Init
 397              	.LVL17:
  97:Core/Src/main.c ****   /* USER CODE BEGIN 2 */
 398              		.loc 1 97 3 view .LVU84
 399 001e FFF7FEFF 		bl	MX_TIM6_Init
 400              	.LVL18:
  99:Core/Src/main.c ****   HAL_FLASH_Lock();
 401              		.loc 1 99 3 view .LVU85
 402 0022 0122     		movs	r2, #1
 403 0024 0949     		ldr	r1, .L34
 404 0026 0A48     		ldr	r0, .L34+4
 405 0028 FFF7FEFF 		bl	Flash_Read_Data
 406              	.LVL19:
 100:Core/Src/main.c ****   HAL_TIM_Encoder_Start(&htim2, TIM_CHANNEL_ALL);
 407              		.loc 1 100 3 view .LVU86
 408 002c FFF7FEFF 		bl	HAL_FLASH_Lock
 409              	.LVL20:
 101:Core/Src/main.c ****   HAL_TIM_Base_Start_IT(&htim6);
 410              		.loc 1 101 3 view .LVU87
 411 0030 3C21     		movs	r1, #60
 412 0032 0848     		ldr	r0, .L34+8
 413 0034 FFF7FEFF 		bl	HAL_TIM_Encoder_Start
 414              	.LVL21:
 102:Core/Src/main.c ****   /* USER CODE END 2 */
 415              		.loc 1 102 3 view .LVU88
 416 0038 0748     		ldr	r0, .L34+12
 417 003a FFF7FEFF 		bl	HAL_TIM_Base_Start_IT
 418              	.LVL22:
 106:Core/Src/main.c ****   MX_FREERTOS_Init();
 419              		.loc 1 106 3 view .LVU89
 420 003e FFF7FEFF 		bl	osKernelInitialize
 421              	.LVL23:
 107:Core/Src/main.c **** 
 422              		.loc 1 107 3 view .LVU90
 423 0042 FFF7FEFF 		bl	MX_FREERTOS_Init
 424              	.LVL24:
 110:Core/Src/main.c **** 
 425              		.loc 1 110 3 view .LVU91
 426 0046 FFF7FEFF 		bl	osKernelStart
 427              	.LVL25:
 428              	.L32:
 115:Core/Src/main.c ****   {
 429              		.loc 1 115 3 discriminator 1 view .LVU92
 120:Core/Src/main.c ****   /* USER CODE END 3 */
 430              		.loc 1 120 3 discriminator 1 view .LVU93
 115:Core/Src/main.c ****   {
 431              		.loc 1 115 9 discriminator 1 view .LVU94
 432 004a FEE7     		b	.L32
 433              	.L35:
 434              		.align	2
 435              	.L34:
 436 004c 00000000 		.word	.LANCHOR0
 437 0050 FCFF0008 		.word	134283260
 438 0054 00000000 		.word	htim2
 439 0058 00000000 		.word	htim6
 440              		.cfi_endproc
 441              	.LFE168:
ARM GAS  C:\Users\walker\AppData\Local\Temp\cc6cN231.s 			page 16


 443              		.global	timer_counter
 444              		.global	counter
 445              		.global	NodeID
 446              		.section	.bss.NodeID,"aw",%nobits
 447              		.align	2
 448              		.set	.LANCHOR0,. + 0
 451              	NodeID:
 452 0000 00000000 		.space	4
 453              		.section	.bss.counter,"aw",%nobits
 454              		.align	1
 455              		.set	.LANCHOR1,. + 0
 458              	counter:
 459 0000 0000     		.space	2
 460              		.section	.bss.timer_counter,"aw",%nobits
 461              		.align	2
 462              		.set	.LANCHOR2,. + 0
 465              	timer_counter:
 466 0000 00000000 		.space	4
 467              		.text
 468              	.Letext0:
 469              		.file 3 "c:\\program files (x86)\\gnu arm embedded toolchain\\10 2021.10\\arm-none-eabi\\include\\
 470              		.file 4 "c:\\program files (x86)\\gnu arm embedded toolchain\\10 2021.10\\arm-none-eabi\\include\\
 471              		.file 5 "c:\\program files (x86)\\gnu arm embedded toolchain\\10 2021.10\\arm-none-eabi\\include\\
 472              		.file 6 "Drivers/CMSIS/Device/ST/STM32F3xx/Include/stm32f303x8.h"
 473              		.file 7 "Drivers/CMSIS/Device/ST/STM32F3xx/Include/stm32f3xx.h"
 474              		.file 8 "Drivers/STM32F3xx_HAL_Driver/Inc/stm32f3xx_hal_def.h"
 475              		.file 9 "Drivers/STM32F3xx_HAL_Driver/Inc/stm32f3xx_hal_rcc.h"
 476              		.file 10 "Drivers/STM32F3xx_HAL_Driver/Inc/stm32f3xx_hal_dma.h"
 477              		.file 11 "Drivers/STM32F3xx_HAL_Driver/Inc/stm32f3xx_hal_can.h"
 478              		.file 12 "Drivers/STM32F3xx_HAL_Driver/Inc/stm32f3xx_hal_tim.h"
 479              		.file 13 "Core/Inc/tim.h"
 480              		.file 14 "Middlewares/Third_Party/CANopenNode_STM32/CO_driver_target.h"
 481              		.file 15 "Middlewares/Third_Party/CANopenNode/301/CO_ODinterface.h"
 482              		.file 16 "Middlewares/Third_Party/CANopenNode/301/CO_Emergency.h"
 483              		.file 17 "Middlewares/Third_Party/CANopenNode/301/CO_NMT_Heartbeat.h"
 484              		.file 18 "Middlewares/Third_Party/CANopenNode/301/CO_HBconsumer.h"
 485              		.file 19 "Middlewares/Third_Party/CANopenNode/301/CO_SDOserver.h"
 486              		.file 20 "Middlewares/Third_Party/CANopenNode/301/CO_SYNC.h"
 487              		.file 21 "Middlewares/Third_Party/CANopenNode/301/CO_PDO.h"
 488              		.file 22 "Middlewares/Third_Party/CANopenNode/301/CO_TIME.h"
 489              		.file 23 "Middlewares/Third_Party/CANopenNode/303/CO_LEDs.h"
 490              		.file 24 "Middlewares/Third_Party/CANopenNode/305/CO_LSS.h"
 491              		.file 25 "Middlewares/Third_Party/CANopenNode/305/CO_LSSslave.h"
 492              		.file 26 "Middlewares/Third_Party/CANopenNode/CANopen.h"
 493              		.file 27 "Middlewares/Third_Party/CANopenNode_STM32/CO_app_STM32.h"
 494              		.file 28 "Drivers/STM32F3xx_HAL_Driver/Inc/stm32f3xx_hal.h"
 495              		.file 29 "Core/Inc/gpio.h"
 496              		.file 30 "Core/Inc/can.h"
 497              		.file 31 "Drivers/STM32F3xx_HAL_Driver/Inc/stm32f3xx_hal_flash.h"
 498              		.file 32 "Middlewares/Third_Party/FreeRTOS/Source/CMSIS_RTOS_V2/cmsis_os2.h"
 499              		.file 33 "<built-in>"
ARM GAS  C:\Users\walker\AppData\Local\Temp\cc6cN231.s 			page 17

